target datalayout = "e-m:e-p270:32:32-p271:32:32-p272:64:64-i64:64-i128:128-f80:128-n8:16:32:64-S128"
target triple = "x86_64-pc-linux-gnu"

; Function Attrs: nounwind uwtable
define void @Macc_ConstMultGenTest0() #0 {
  %1 = alloca i32, align 4
  %2 = alloca ptr, align 8
  call void @llvm.lifetime.start.p0(i64 4, ptr %1) #9
  store i32 8, ptr %1, align 4, !tbaa !8
  call void @llvm.lifetime.start.p0(i64 8, ptr %2) #9
  %3 = load i32, ptr %1, align 4, !tbaa !8
  %4 = call ptr @Macc_ConstMultGenerate(i32 noundef %3)
  store ptr %4, ptr %2, align 8, !tbaa !14
  %5 = load ptr, ptr %2, align 8, !tbaa !14
  %6 = icmp ne ptr %5, null
  br i1 %6, label %7, label %9

7:                                                ; preds = %0
  %8 = load ptr, ptr %2, align 8, !tbaa !14
  call void @free(ptr noundef %8) #9
  store ptr null, ptr %2, align 8, !tbaa !14
  br label %10

9:                                                ; preds = %0
  br label %10

10:                                               ; preds = %9, %7
  call void @llvm.lifetime.end.p0(i64 8, ptr %2) #9
  call void @llvm.lifetime.end.p0(i64 4, ptr %1) #9
  ret void
}