; Function Attrs: nounwind uwtable
define void @Macc_ConstMultGenTest0() local_unnamed_addr #0 {
  %1 = tail call ptr @Macc_ConstMultGenerate(i32 noundef 8)
  %.not = icmp eq ptr %1, null
  br i1 %.not, label %3, label %2

2:                                                ; preds = %0
  tail call void @free(ptr noundef nonnull %1) #12
  br label %3

3:                                                ; preds = %0, %2
  ret void
}